; Function Attrs: mustprogress uwtable
define void @_ZN5faiss36IndexIVFLocalSearchQuantizerFastScanC2Ev(ptr noundef nonnull align 8 dereferenceable(816) %0) unnamed_addr #2 align 2 personality ptr @__gxx_personality_v0 {
  tail call void @_ZN5faiss16IndexIVFFastScanC2Ev(ptr noundef nonnull align 8 dereferenceable(368) %0)
  %2 = getelementptr inbounds nuw i8, ptr %0, i64 40
  %3 = getelementptr inbounds nuw i8, ptr %0, i64 352
  store i8 0, ptr %3, align 8, !tbaa !15
  %4 = getelementptr inbounds nuw i8, ptr %0, i64 356
  store i32 1, ptr %4, align 4, !tbaa !105
  %5 = getelementptr inbounds nuw i8, ptr %0, i64 268
  store i32 0, ptr %5, align 4, !tbaa !119
  %6 = getelementptr inbounds nuw i8, ptr %0, i64 296
  store i64 0, ptr %6, align 8, !tbaa !115
  %7 = getelementptr inbounds nuw i8, ptr %0, i64 344
  store ptr null, ptr %7, align 8, !tbaa !71
  %8 = getelementptr inbounds nuw i8, ptr %0, i64 25
  store i8 0, ptr %8, align 1, !tbaa !111
  store ptr getelementptr inbounds nuw inrange(-16, 288) (i8, ptr @_ZTVN5faiss36IndexIVFLocalSearchQuantizerFastScanE, i64 16), ptr %0, align 8, !tbaa !61
  store ptr getelementptr inbounds nuw inrange(-16, 32) (i8, ptr @_ZTVN5faiss36IndexIVFLocalSearchQuantizerFastScanE, i64 320), ptr %2, align 8, !tbaa !61
  %9 = getelementptr inbounds nuw i8, ptr %0, i64 368
  invoke void @_ZN5faiss20LocalSearchQuantizerC1Ev(ptr noundef nonnull align 8 dereferenceable(441) %9)
          to label %10 unwind label %11

10:                                               ; preds = %1
  store ptr %9, ptr %7, align 8, !tbaa !71
  ret void

11:                                               ; preds = %1
  %12 = landingpad { ptr, i32 }
          cleanup
  tail call void @_ZN5faiss16IndexIVFFastScanD2Ev(ptr noundef nonnull align 8 dereferenceable(368) %0) #21
  resume { ptr, i32 } %12
}